; Function Attrs: mustprogress nofree norecurse nosync nounwind willreturn memory(none) uwtable
define hidden noundef ptr @_ZNK8Register12RegisterImpl4nameEv(ptr noundef nonnull align 1 dereferenceable(1) %0) local_unnamed_addr #0 align 2 {
  %2 = ptrtoint ptr %0 to i64
  %3 = trunc i64 %2 to i32
  %4 = sub i32 %3, ptrtoint (ptr getelementptr inbounds (i8, ptr @all_RegisterImpls, i64 1) to i32)
  %5 = icmp ult i32 %4, 32
  br i1 %5, label %6, label %10

6:                                                ; preds = %1
  %7 = zext nneg i32 %4 to i64
  %8 = getelementptr inbounds [32 x ptr], ptr @_ZZNK8Register12RegisterImpl4nameEvE5names, i64 0, i64 %7
  %9 = load ptr, ptr %8, align 8
  br label %10

10:                                               ; preds = %1, %6
  %11 = phi ptr [ %9, %6 ], [ @.str.35, %1 ]
  ret ptr %11
}